target datalayout = "e-m:e-p270:32:32-p271:32:32-p272:64:64-i64:64-i128:128-f80:128-n8:16:32:64-S128"
target triple = "x86_64-pc-linux-gnu"

%class.Node = type <{ ptr, ptr, ptr, i32, i32, i32, i32, i32, i32, i32, [4 x i8] }>

; Function Attrs: mustprogress nounwind uwtable
define linkonce_odr hidden noundef zeroext i1 @_ZNK4Node6is_PhiEv(ptr noundef nonnull align 8 dereferenceable(52) %0) #1 comdat align 2 {
  %2 = alloca ptr, align 8
  store ptr %0, ptr %2, align 8
  %3 = load ptr, ptr %2, align 8
  %4 = getelementptr inbounds %class.Node, ptr %3, i32 0, i32 8
  %5 = load i32, ptr %4, align 4
  %6 = and i32 %5, 15
  %7 = icmp eq i32 %6, 12
  ret i1 %7
}

; Function Attrs: mustprogress nounwind uwtable
define linkonce_odr hidden noundef i32 @_ZNK4Node3reqEv(ptr noundef nonnull align 8 dereferenceable(52) %0) #1 comdat align 2 {
  %2 = alloca ptr, align 8
  store ptr %0, ptr %2, align 8
  %3 = load ptr, ptr %2, align 8
  %4 = getelementptr inbounds %class.Node, ptr %3, i32 0, i32 3
  %5 = load i32, ptr %4, align 8
  ret i32 %5
}

; Function Attrs: mustprogress nounwind uwtable
define linkonce_odr hidden noundef zeroext i1 @_ZNK4Node9is_CastPPEv(ptr noundef nonnull align 8 dereferenceable(52) %0) #1 comdat align 2 {
  %2 = alloca ptr, align 8
  store ptr %0, ptr %2, align 8
  %3 = load ptr, ptr %2, align 8
  %4 = getelementptr inbounds %class.Node, ptr %3, i32 0, i32 8
  %5 = load i32, ptr %4, align 4
  %6 = and i32 %5, 4095
  %7 = icmp eq i32 %6, 2068
  ret i1 %7
}

; Function Attrs: mustprogress nounwind uwtable
define linkonce_odr hidden noundef ptr @_ZNK4Node2inEj(ptr noundef nonnull align 8 dereferenceable(52) %0, i32 noundef %1) #1 comdat align 2 {
  %3 = alloca ptr, align 8
  %4 = alloca i32, align 4
  store ptr %0, ptr %3, align 8
  store i32 %1, ptr %4, align 4
  %5 = load ptr, ptr %3, align 8
  %6 = getelementptr inbounds %class.Node, ptr %5, i32 0, i32 1
  %7 = load ptr, ptr %6, align 8
  %8 = load i32, ptr %4, align 4
  %9 = zext i32 %8 to i64
  %10 = getelementptr inbounds ptr, ptr %7, i64 %9
  %11 = load ptr, ptr %10, align 8
  ret ptr %11
}

; Function Attrs: mustprogress nounwind uwtable
define hidden noundef zeroext i1 @_ZN8LoadNode26can_split_through_phi_baseEP8PhaseGVN(ptr noundef nonnull align 8 dereferenceable(72) %0, ptr noundef %1) #1 align 2 {
  %3 = alloca i1, align 1
  %4 = alloca ptr, align 8
  %5 = alloca ptr, align 8
  %6 = alloca ptr, align 8
  %7 = alloca ptr, align 8
  %8 = alloca i64, align 8
  %9 = alloca ptr, align 8
  store ptr %0, ptr %4, align 8
  store ptr %1, ptr %5, align 8
  %10 = load ptr, ptr %4, align 8
  %11 = call noundef ptr @_ZNK4Node2inEj(ptr noundef nonnull align 8 dereferenceable(52) %10, i32 noundef 1)
  store ptr %11, ptr %6, align 8
  %12 = call noundef ptr @_ZNK4Node2inEj(ptr noundef nonnull align 8 dereferenceable(52) %10, i32 noundef 2)
  store ptr %12, ptr %7, align 8
  store i64 0, ptr %8, align 8
  %13 = load ptr, ptr %7, align 8
  %14 = load ptr, ptr %5, align 8
  %15 = call noundef ptr @_ZN8AddPNode21Ideal_base_and_offsetEP4NodeP11PhaseValuesRl(ptr noundef %13, ptr noundef %14, ptr noundef nonnull align 8 dereferenceable(8) %8)
  store ptr %15, ptr %9, align 8
  %16 = load ptr, ptr %9, align 8
  %17 = call noundef zeroext i1 @_ZNK4Node9is_CastPPEv(ptr noundef nonnull align 8 dereferenceable(52) %16)
  br i1 %17, label %18, label %21

18:                                               ; preds = %2
  %19 = load ptr, ptr %9, align 8
  %20 = call noundef ptr @_ZNK4Node2inEj(ptr noundef nonnull align 8 dereferenceable(52) %19, i32 noundef 1)
  store ptr %20, ptr %9, align 8
  br label %21

21:                                               ; preds = %18, %2
  %22 = call noundef i32 @_ZNK4Node3reqEv(ptr noundef nonnull align 8 dereferenceable(52) %10)
  %23 = icmp ugt i32 %22, 3
  br i1 %23, label %30, label %24

24:                                               ; preds = %21
  %25 = load ptr, ptr %9, align 8
  %26 = icmp eq ptr %25, null
  br i1 %26, label %30, label %27

27:                                               ; preds = %24
  %28 = load ptr, ptr %9, align 8
  %29 = call noundef zeroext i1 @_ZNK4Node6is_PhiEv(ptr noundef nonnull align 8 dereferenceable(52) %28)
  br i1 %29, label %31, label %30

30:                                               ; preds = %27, %24, %21
  store i1 false, ptr %3, align 1
  br label %56

31:                                               ; preds = %27
  %32 = load ptr, ptr %6, align 8
  %33 = call noundef zeroext i1 @_ZNK4Node6is_PhiEv(ptr noundef nonnull align 8 dereferenceable(52) %32)
  br i1 %33, label %41, label %34

34:                                               ; preds = %31
  %35 = load ptr, ptr %6, align 8
  %36 = load ptr, ptr %9, align 8
  %37 = call noundef ptr @_ZNK4Node2inEj(ptr noundef nonnull align 8 dereferenceable(52) %36, i32 noundef 0)
  %38 = call noundef zeroext i1 @_ZN7MemNode21all_controls_dominateEP4NodeS1_(ptr noundef %35, ptr noundef %37)
  br i1 %38, label %40, label %39

39:                                               ; preds = %34
  store i1 false, ptr %3, align 1
  br label %56

40:                                               ; preds = %34
  br label %55

41:                                               ; preds = %31
  %42 = load ptr, ptr %9, align 8
  %43 = call noundef ptr @_ZNK4Node2inEj(ptr noundef nonnull align 8 dereferenceable(52) %42, i32 noundef 0)
  %44 = load ptr, ptr %6, align 8
  %45 = call noundef ptr @_ZNK4Node2inEj(ptr noundef nonnull align 8 dereferenceable(52) %44, i32 noundef 0)
  %46 = icmp ne ptr %43, %45
  br i1 %46, label %47, label %54

47:                                               ; preds = %41
  %48 = load ptr, ptr %6, align 8
  %49 = load ptr, ptr %9, align 8
  %50 = call noundef ptr @_ZNK4Node2inEj(ptr noundef nonnull align 8 dereferenceable(52) %49, i32 noundef 0)
  %51 = call noundef zeroext i1 @_ZN7MemNode21all_controls_dominateEP4NodeS1_(ptr noundef %48, ptr noundef %50)
  br i1 %51, label %53, label %52

52:                                               ; preds = %47
  store i1 false, ptr %3, align 1
  br label %56

53:                                               ; preds = %47
  br label %54

54:                                               ; preds = %53, %41
  br label %55

55:                                               ; preds = %54, %40
  store i1 true, ptr %3, align 1
  br label %56

56:                                               ; preds = %55, %52, %39, %30
  %57 = load i1, ptr %3, align 1
  ret i1 %57
}