; Function Attrs: mustprogress nounwind uwtable
define hidden noundef zeroext i1 @_ZN8LoadNode26can_split_through_phi_baseEP8PhaseGVN(ptr nocapture noundef nonnull readonly align 8 dereferenceable(72) %0, ptr noundef %1) local_unnamed_addr #1 align 2 {
  %3 = alloca i64, align 8
  %4 = getelementptr inbounds i8, ptr %0, i64 8
  %5 = load ptr, ptr %4, align 8
  %6 = getelementptr inbounds i8, ptr %5, i64 8
  %7 = load ptr, ptr %6, align 8
  %8 = getelementptr inbounds i8, ptr %5, i64 16
  %9 = load ptr, ptr %8, align 8
  store i64 0, ptr %3, align 8
  %10 = call noundef ptr @_ZN8AddPNode21Ideal_base_and_offsetEP4NodeP11PhaseValuesRl(ptr noundef %9, ptr noundef %1, ptr noundef nonnull align 8 dereferenceable(8) %3) #13
  %11 = getelementptr inbounds i8, ptr %10, i64 44
  %12 = load i32, ptr %11, align 4
  %13 = and i32 %12, 4095
  %14 = icmp eq i32 %13, 2068
  br i1 %14, label %15, label %20

15:                                               ; preds = %2
  %16 = getelementptr inbounds i8, ptr %10, i64 8
  %17 = load ptr, ptr %16, align 8
  %18 = getelementptr inbounds i8, ptr %17, i64 8
  %19 = load ptr, ptr %18, align 8
  br label %20

20:                                               ; preds = %15, %2
  %.0 = phi ptr [ %19, %15 ], [ %10, %2 ]
  %21 = getelementptr inbounds i8, ptr %0, i64 24
  %22 = load i32, ptr %21, align 8
  %23 = icmp ugt i32 %22, 3
  %24 = icmp eq ptr %.0, null
  %or.cond = or i1 %24, %23
  br i1 %or.cond, label %47, label %25

25:                                               ; preds = %20
  %26 = getelementptr inbounds i8, ptr %.0, i64 44
  %27 = load i32, ptr %26, align 4
  %28 = and i32 %27, 15
  %29 = icmp eq i32 %28, 12
  br i1 %29, label %30, label %47

30:                                               ; preds = %25
  %31 = getelementptr inbounds i8, ptr %7, i64 44
  %32 = load i32, ptr %31, align 4
  %33 = and i32 %32, 15
  %34 = icmp eq i32 %33, 12
  %35 = getelementptr inbounds i8, ptr %.0, i64 8
  %36 = load ptr, ptr %35, align 8
  %37 = load ptr, ptr %36, align 8
  br i1 %34, label %40, label %38

38:                                               ; preds = %30
  %39 = call noundef zeroext i1 @_ZN7MemNode21all_controls_dominateEP4NodeS1_(ptr noundef nonnull %7, ptr noundef %37)
  br i1 %39, label %46, label %47

40:                                               ; preds = %30
  %41 = getelementptr inbounds i8, ptr %7, i64 8
  %42 = load ptr, ptr %41, align 8
  %43 = load ptr, ptr %42, align 8
  %.not = icmp eq ptr %37, %43
  br i1 %.not, label %46, label %44

44:                                               ; preds = %40
  %45 = call noundef zeroext i1 @_ZN7MemNode21all_controls_dominateEP4NodeS1_(ptr noundef nonnull %7, ptr noundef %37)
  br i1 %45, label %46, label %47

46:                                               ; preds = %40, %44, %38
  br label %47

47:                                               ; preds = %44, %38, %20, %25, %46
  %.016 = phi i1 [ true, %46 ], [ false, %25 ], [ false, %20 ], [ false, %38 ], [ false, %44 ]
  ret i1 %.016
}